target datalayout = "e-m:e-p270:32:32-p271:32:32-p272:64:64-i64:64-i128:128-f80:128-n8:16:32:64-S128"
target triple = "x86_64-pc-linux-gnu"

%struct.alts_record_protocol_crypter = type { %struct.alts_crypter, ptr, ptr }
%struct.alts_crypter = type { ptr }

; Function Attrs: mustprogress uwtable
define noundef i64 @_Z47alts_record_protocol_crypter_num_overhead_bytesPK12alts_crypter(ptr noundef %0) #0 {
  %2 = alloca i64, align 8
  %3 = alloca ptr, align 8
  %4 = alloca i64, align 8
  %5 = alloca ptr, align 8
  %6 = alloca ptr, align 8
  %7 = alloca i32, align 4
  %8 = alloca i32, align 4
  store ptr %0, ptr %3, align 8, !tbaa !27
  %9 = load ptr, ptr %3, align 8, !tbaa !27
  %10 = icmp ne ptr %9, null
  br i1 %10, label %11, label %25

11:                                               ; preds = %1
  call void @llvm.lifetime.start.p0(i64 8, ptr %4) #6
  store i64 0, ptr %4, align 8, !tbaa !29
  call void @llvm.lifetime.start.p0(i64 8, ptr %5) #6
  store ptr null, ptr %5, align 8, !tbaa !8
  call void @llvm.lifetime.start.p0(i64 8, ptr %6) #6
  %12 = load ptr, ptr %3, align 8, !tbaa !27
  store ptr %12, ptr %6, align 8, !tbaa !3
  call void @llvm.lifetime.start.p0(i64 4, ptr %7) #6
  %13 = load ptr, ptr %6, align 8, !tbaa !3
  %14 = getelementptr inbounds nuw %struct.alts_record_protocol_crypter, ptr %13, i32 0, i32 1
  %15 = load ptr, ptr %14, align 8, !tbaa !31
  %16 = call noundef i32 @_Z28gsec_aead_crypter_tag_lengthPK17gsec_aead_crypterPmPPc(ptr noundef %15, ptr noundef %4, ptr noundef %5)
  store i32 %16, ptr %7, align 4, !tbaa !23
  %17 = load i32, ptr %7, align 4, !tbaa !23
  %18 = icmp eq i32 %17, 0
  br i1 %18, label %19, label %21

19:                                               ; preds = %11
  %20 = load i64, ptr %4, align 8, !tbaa !29
  store i64 %20, ptr %2, align 8
  store i32 1, ptr %8, align 4
  br label %22

21:                                               ; preds = %11
  store i32 0, ptr %8, align 4
  br label %22

22:                                               ; preds = %21, %19
  call void @llvm.lifetime.end.p0(i64 4, ptr %7) #6
  call void @llvm.lifetime.end.p0(i64 8, ptr %6) #6
  call void @llvm.lifetime.end.p0(i64 8, ptr %5) #6
  call void @llvm.lifetime.end.p0(i64 8, ptr %4) #6
  %23 = load i32, ptr %8, align 4
  switch i32 %23, label %28 [
    i32 0, label %24
    i32 1, label %26
  ]

24:                                               ; preds = %22
  br label %25

25:                                               ; preds = %24, %1
  store i64 0, ptr %2, align 8
  br label %26

26:                                               ; preds = %25, %22
  %27 = load i64, ptr %2, align 8
  ret i64 %27

28:                                               ; preds = %22
  unreachable
}