; Function Attrs: mustprogress uwtable
define noundef i64 @_Z47alts_record_protocol_crypter_num_overhead_bytesPK12alts_crypter(ptr noundef readonly %0) local_unnamed_addr #0 {
  %2 = alloca i64, align 8
  %3 = alloca ptr, align 8
  %.not = icmp eq ptr %0, null
  br i1 %.not, label %9, label %4

4:                                                ; preds = %1
  call void @llvm.lifetime.start.p0(i64 8, ptr nonnull %2) #4
  store i64 0, ptr %2, align 8, !tbaa !18
  call void @llvm.lifetime.start.p0(i64 8, ptr nonnull %3) #4
  store ptr null, ptr %3, align 8, !tbaa !3
  %5 = getelementptr inbounds nuw i8, ptr %0, i64 8
  %6 = load ptr, ptr %5, align 8, !tbaa !20
  %7 = call noundef i32 @_Z28gsec_aead_crypter_tag_lengthPK17gsec_aead_crypterPmPPc(ptr noundef %6, ptr noundef nonnull %2, ptr noundef nonnull %3)
  %.not7 = icmp eq i32 %7, 0
  %8 = load i64, ptr %2, align 8
  call void @llvm.lifetime.end.p0(i64 8, ptr nonnull %3) #4
  call void @llvm.lifetime.end.p0(i64 8, ptr nonnull %2) #4
  br i1 %.not7, label %10, label %9

9:                                                ; preds = %4, %1
  br label %10

10:                                               ; preds = %4, %9
  %.1 = phi i64 [ %8, %4 ], [ 0, %9 ]
  ret i64 %.1
}